target datalayout = "e-m:e-p270:32:32-p271:32:32-p272:64:64-i64:64-i128:128-f80:128-n8:16:32:64-S128"
target triple = "x86_64-pc-linux-gnu"

%struct.slurm_conf_t = type { i64, ptr, i16, ptr, ptr, ptr, ptr, ptr, i16, ptr, ptr, ptr, ptr, ptr, ptr, ptr, i16, ptr, ptr, ptr, ptr, i16, ptr, ptr, ptr, i64, ptr, ptr, ptr, ptr, i16, ptr, ptr, i16, i32, ptr, i32, ptr, i32, i32, ptr, ptr, i64, i64, ptr, i16, i16, ptr, i32, i32, ptr, i32, ptr, i32, i16, i16, i16, ptr, i16, i16, ptr, ptr, i32, i16, i16, ptr, i32, i16, ptr, ptr, ptr, ptr, i16, ptr, ptr, ptr, ptr, i32, ptr, ptr, ptr, ptr, i16, i16, ptr, i32, i32, i32, i16, i16, ptr, ptr, i16, ptr, ptr, i32, i32, i32, i32, i32, i64, i32, i32, i16, ptr, ptr, i32, ptr, ptr, ptr, i16, i32, ptr, ptr, i16, ptr, ptr, i32, i16, ptr, ptr, ptr, ptr, i32, i32, i16, i16, i32, ptr, i16, ptr, i32, i32, i32, i32, i32, i32, ptr, i16, ptr, ptr, i32, i16, ptr, i32, i16, i16, ptr, ptr, ptr, i16, ptr, ptr, ptr, ptr, i16, i16, ptr, i16, ptr, i16, ptr, i16, ptr, i16, ptr, ptr, ptr, ptr, i16, ptr, ptr, ptr, i32, ptr, i32, ptr, ptr, i16, ptr, ptr, i32, i16, ptr, ptr, i16, i16, ptr, i16, ptr, ptr, ptr, i32, ptr, i16, i16, ptr, ptr, ptr, ptr, ptr, ptr, ptr, ptr, i16, i32, i16, ptr, ptr, ptr, ptr, i32, ptr, ptr, ptr, i16, ptr, ptr, ptr, i16, ptr, i16, ptr, i16, i16, ptr }
%struct.cgroup_conf_t = type { ptr, ptr, i8, i8, float, float, i64, i8, float, float, i64, i8, ptr, i8, i8, i8, i8, i64 }
%struct.slurm_ops_t = type { ptr, ptr, ptr, ptr, ptr, ptr, ptr, ptr, ptr, ptr, ptr, ptr, ptr, ptr, ptr, ptr, ptr, ptr, ptr, ptr, ptr, ptr, ptr }
%union.pthread_mutex_t = type { %struct.__pthread_mutex_s }
%struct.__pthread_mutex_s = type { i32, i32, i32, i32, i32, i16, i16, %struct.__pthread_internal_list }
%struct.__pthread_internal_list = type { ptr, ptr }

@slurm_conf = external global %struct.slurm_conf_t, align 8
@slurm_cgroup_conf = dso_local global %struct.cgroup_conf_t zeroinitializer, align 8
@plugin_inited = internal global i32 0, align 4
@ops = internal global %struct.slurm_ops_t zeroinitializer, align 8
@scope_path = internal global [4096 x i8] zeroinitializer, align 16
@.str.46 = private unnamed_addr constant [9 x i8] c"disabled\00", align 1
@.str.47 = private unnamed_addr constant [7 x i8] c"cgroup\00", align 1
@g_context_lock = internal global %union.pthread_mutex_t zeroinitializer, align 8
@.str.48 = private unnamed_addr constant [29 x i8] c"%s: pthread_mutex_lock(): %m\00", align 1
@__func__.cgroup_g_init = private unnamed_addr constant [14 x i8] c"cgroup_g_init\00", align 1
@.str.49 = private unnamed_addr constant [45 x i8] c"CGROUP: cgroup conf was already initialized.\00", align 1
@.str.50 = private unnamed_addr constant [11 x i8] c"autodetect\00", align 1
@g_context = internal global ptr null, align 8
@.str.51 = private unnamed_addr constant [32 x i8] c"cannot create %s context for %s\00", align 1
@.str.52 = private unnamed_addr constant [30 x i8] c"cannot setup the scope for %s\00", align 1
@.str.53 = private unnamed_addr constant [31 x i8] c"%s: pthread_mutex_unlock(): %m\00", align 1

; Function Attrs: nounwind uwtable
define dso_local i32 @cgroup_g_init() #0 {
  %1 = alloca i32, align 4
  %2 = alloca ptr, align 8
  %3 = alloca ptr, align 8
  %4 = alloca i32, align 4
  %5 = alloca i32, align 4
  call void @llvm.lifetime.start.p0(i64 4, ptr %1) #9
  store i32 0, ptr %1, align 4
  call void @llvm.lifetime.start.p0(i64 8, ptr %2) #9
  store ptr @.str.47, ptr %2, align 8
  call void @llvm.lifetime.start.p0(i64 8, ptr %3) #9
  store ptr null, ptr %3, align 8
  br label %6

6:                                                ; preds = %0
  call void @llvm.lifetime.start.p0(i64 4, ptr %4) #9
  %7 = call i32 @pthread_mutex_lock(ptr noundef @g_context_lock) #9
  store i32 %7, ptr %4, align 4
  %8 = load i32, ptr %4, align 4
  %9 = icmp ne i32 %8, 0
  br i1 %9, label %10, label %13

10:                                               ; preds = %6
  %11 = load i32, ptr %4, align 4
  %12 = call ptr @__errno_location() #10
  store i32 %11, ptr %12, align 4
  call void (ptr, ...) @fatal_abort(ptr noundef @.str.48, ptr noundef @__func__.cgroup_g_init) #11
  unreachable

13:                                               ; preds = %6
  call void @llvm.lifetime.end.p0(i64 4, ptr %4) #9
  br label %14

14:                                               ; preds = %13
  br label %15

15:                                               ; preds = %14
  %16 = load i32, ptr @plugin_inited, align 4
  %17 = icmp ne i32 %16, 0
  br i1 %17, label %18, label %19

18:                                               ; preds = %15
  br label %72

19:                                               ; preds = %15
  %20 = call i32 @cgroup_conf_init()
  %21 = icmp ne i32 %20, 0
  br i1 %21, label %22, label %38

22:                                               ; preds = %19
  br label %23

23:                                               ; preds = %22
  %24 = load i64, ptr getelementptr inbounds nuw (%struct.slurm_conf_t, ptr @slurm_conf, i32 0, i32 42), align 8
  %25 = and i64 %24, 36028797018963968
  %26 = icmp ne i64 %25, 0
  br i1 %26, label %27, label %35

27:                                               ; preds = %23
  br label %28

28:                                               ; preds = %27
  %29 = call i32 @get_log_level()
  %30 = icmp sge i32 %29, 4
  br i1 %30, label %31, label %32

31:                                               ; preds = %28
  call void (i32, ptr, ...) @log_var(i32 noundef 4, ptr noundef @.str.49)
  br label %32

32:                                               ; preds = %31, %28
  br label %33

33:                                               ; preds = %32
  br label %34

34:                                               ; preds = %33
  br label %35

35:                                               ; preds = %34, %23
  br label %36

36:                                               ; preds = %35
  br label %37

37:                                               ; preds = %36
  br label %38

38:                                               ; preds = %37, %19
  %39 = load ptr, ptr getelementptr inbounds nuw (%struct.cgroup_conf_t, ptr @slurm_cgroup_conf, i32 0, i32 12), align 8
  store ptr %39, ptr %3, align 8
  %40 = load ptr, ptr %3, align 8
  %41 = call i32 @xstrcmp(ptr noundef %40, ptr noundef @.str.46)
  %42 = icmp ne i32 %41, 0
  br i1 %42, label %44, label %43

43:                                               ; preds = %38
  store i32 1, ptr @plugin_inited, align 4
  br label %72

44:                                               ; preds = %38
  %45 = load ptr, ptr %3, align 8
  %46 = call i32 @xstrcmp(ptr noundef %45, ptr noundef @.str.50)
  %47 = icmp ne i32 %46, 0
  br i1 %47, label %53, label %48

48:                                               ; preds = %44
  %49 = call ptr @autodetect_cgroup_version()
  store ptr %49, ptr %3, align 8
  %50 = icmp ne ptr %49, null
  br i1 %50, label %52, label %51

51:                                               ; preds = %48
  store i32 -1, ptr %1, align 4
  br label %72

52:                                               ; preds = %48
  br label %53

53:                                               ; preds = %52, %44
  %54 = load ptr, ptr %2, align 8
  %55 = load ptr, ptr %3, align 8
  %56 = call ptr @plugin_context_create(ptr noundef %54, ptr noundef %55, ptr noundef @ops, ptr noundef @syms, i64 noundef 184)
  store ptr %56, ptr @g_context, align 8
  %57 = load ptr, ptr @g_context, align 8
  %58 = icmp ne ptr %57, null
  br i1 %58, label %63, label %59

59:                                               ; preds = %53
  %60 = load ptr, ptr %2, align 8
  %61 = load ptr, ptr %3, align 8
  %62 = call i32 (ptr, ...) @error(ptr noundef @.str.51, ptr noundef %60, ptr noundef %61)
  store i32 -1, ptr %1, align 4
  store i32 0, ptr @plugin_inited, align 4
  br label %72

63:                                               ; preds = %53
  %64 = load ptr, ptr getelementptr inbounds nuw (%struct.slurm_ops_t, ptr @ops, i32 0, i32 21), align 8
  %65 = call i32 %64(ptr noundef @scope_path)
  store i32 %65, ptr %1, align 4
  %66 = load i32, ptr %1, align 4
  %67 = icmp eq i32 %66, -1
  br i1 %67, label %68, label %71

68:                                               ; preds = %63
  %69 = load ptr, ptr %2, align 8
  %70 = call i32 (ptr, ...) @error(ptr noundef @.str.52, ptr noundef %69)
  br label %72

71:                                               ; preds = %63
  store i32 2, ptr @plugin_inited, align 4
  br label %72

72:                                               ; preds = %71, %68, %59, %51, %43, %18
  br label %73

73:                                               ; preds = %72
  call void @llvm.lifetime.start.p0(i64 4, ptr %5) #9
  %74 = call i32 @pthread_mutex_unlock(ptr noundef @g_context_lock) #9
  store i32 %74, ptr %5, align 4
  %75 = load i32, ptr %5, align 4
  %76 = icmp ne i32 %75, 0
  br i1 %76, label %77, label %80

77:                                               ; preds = %73
  %78 = load i32, ptr %5, align 4
  %79 = call ptr @__errno_location() #10
  store i32 %78, ptr %79, align 4
  call void (ptr, ...) @fatal_abort(ptr noundef @.str.53, ptr noundef @__func__.cgroup_g_init) #11
  unreachable

80:                                               ; preds = %73
  call void @llvm.lifetime.end.p0(i64 4, ptr %5) #9
  br label %81

81:                                               ; preds = %80
  br label %82

82:                                               ; preds = %81
  %83 = load i32, ptr %1, align 4
  call void @llvm.lifetime.end.p0(i64 8, ptr %3) #9
  call void @llvm.lifetime.end.p0(i64 8, ptr %2) #9
  call void @llvm.lifetime.end.p0(i64 4, ptr %1) #9
  ret i32 %83
}