; Function Attrs: nounwind uwtable
define dso_local i32 @cgroup_g_init() local_unnamed_addr #0 {
  %1 = tail call i32 @pthread_mutex_lock(ptr noundef nonnull @g_context_lock) #12
  %.not = icmp eq i32 %1, 0
  br i1 %.not, label %4, label %2

2:                                                ; preds = %0
  %3 = tail call ptr @__errno_location() #13
  store i32 %1, ptr %3, align 4
  tail call void (ptr, ...) @fatal_abort(ptr noundef nonnull @.str.48, ptr noundef nonnull @__func__.cgroup_g_init) #14
  unreachable

4:                                                ; preds = %0
  %5 = load i32, ptr @plugin_inited, align 4
  %.not17 = icmp eq i32 %5, 0
  br i1 %.not17, label %6, label %34

6:                                                ; preds = %4
  %7 = tail call i32 @cgroup_conf_init()
  %.not18 = icmp eq i32 %7, 0
  br i1 %.not18, label %15, label %8

8:                                                ; preds = %6
  %9 = load i64, ptr getelementptr inbounds nuw (i8, ptr @slurm_conf, i64 320), align 8
  %10 = and i64 %9, 36028797018963968
  %.not19 = icmp eq i64 %10, 0
  br i1 %.not19, label %15, label %11

11:                                               ; preds = %8
  %12 = tail call i32 @get_log_level() #12
  %13 = icmp sgt i32 %12, 3
  br i1 %13, label %14, label %15

14:                                               ; preds = %11
  tail call void (i32, ptr, ...) @log_var(i32 noundef 4, ptr noundef nonnull @.str.49) #12
  br label %15

15:                                               ; preds = %8, %14, %11, %6
  %16 = load ptr, ptr getelementptr inbounds nuw (i8, ptr @slurm_cgroup_conf, i64 72), align 8
  %17 = tail call i32 @xstrcmp(ptr noundef %16, ptr noundef nonnull @.str.46) #12
  %.not20 = icmp eq i32 %17, 0
  br i1 %.not20, label %18, label %19

18:                                               ; preds = %15
  store i32 1, ptr @plugin_inited, align 4
  br label %34

19:                                               ; preds = %15
  %20 = tail call i32 @xstrcmp(ptr noundef %16, ptr noundef nonnull @.str.50) #12
  %.not21 = icmp eq i32 %20, 0
  br i1 %.not21, label %21, label %23

21:                                               ; preds = %19
  %22 = tail call ptr @autodetect_cgroup_version()
  %.not22 = icmp eq ptr %22, null
  br i1 %.not22, label %34, label %23

23:                                               ; preds = %21, %19
  %.012 = phi ptr [ %16, %19 ], [ %22, %21 ]
  %24 = tail call ptr @plugin_context_create(ptr noundef nonnull @.str.47, ptr noundef %.012, ptr noundef nonnull @ops, ptr noundef nonnull @syms, i64 noundef 184) #12
  store ptr %24, ptr @g_context, align 8
  %.not23 = icmp eq ptr %24, null
  br i1 %.not23, label %25, label %27

25:                                               ; preds = %23
  %26 = tail call i32 (ptr, ...) @error(ptr noundef nonnull @.str.51, ptr noundef nonnull @.str.47, ptr noundef %.012) #12
  store i32 0, ptr @plugin_inited, align 4
  br label %34

27:                                               ; preds = %23
  %28 = load ptr, ptr getelementptr inbounds nuw (i8, ptr @ops, i64 168), align 8
  %29 = tail call i32 %28(ptr noundef nonnull @scope_path) #12
  %30 = icmp eq i32 %29, -1
  br i1 %30, label %31, label %33

31:                                               ; preds = %27
  %32 = tail call i32 (ptr, ...) @error(ptr noundef nonnull @.str.52, ptr noundef nonnull @.str.47) #12
  br label %34

33:                                               ; preds = %27
  store i32 2, ptr @plugin_inited, align 4
  br label %34

34:                                               ; preds = %21, %18, %25, %31, %33, %4
  %.0 = phi i32 [ 0, %4 ], [ -1, %31 ], [ %29, %33 ], [ -1, %25 ], [ 0, %18 ], [ -1, %21 ]
  %35 = tail call i32 @pthread_mutex_unlock(ptr noundef nonnull @g_context_lock) #12
  %.not24 = icmp eq i32 %35, 0
  br i1 %.not24, label %38, label %36

36:                                               ; preds = %34
  %37 = tail call ptr @__errno_location() #13
  store i32 %35, ptr %37, align 4
  tail call void (ptr, ...) @fatal_abort(ptr noundef nonnull @.str.53, ptr noundef nonnull @__func__.cgroup_g_init) #14
  unreachable

38:                                               ; preds = %34
  ret i32 %.0
}